ARM GAS  /tmp/cccH7pbl.s 			page 1


   1              		.cpu cortex-m3
   2              		.arch armv7-m
   3              		.fpu softvfp
   4              		.eabi_attribute 20, 1
   5              		.eabi_attribute 21, 1
   6              		.eabi_attribute 23, 3
   7              		.eabi_attribute 24, 1
   8              		.eabi_attribute 25, 1
   9              		.eabi_attribute 26, 1
  10              		.eabi_attribute 30, 1
  11              		.eabi_attribute 34, 1
  12              		.eabi_attribute 18, 4
  13              		.file	"bootloader_io.c"
  14              		.text
  15              	.Ltext0:
  16              		.cfi_sections	.debug_frame
  17              		.file 1 "External/bootloader/Src/bootloader_io.c"
  18              		.section	.text.bootloader_io_read,"ax",%progbits
  19              		.align	1
  20              		.global	bootloader_io_read
  21              		.syntax unified
  22              		.thumb
  23              		.thumb_func
  25              	bootloader_io_read:
  26              	.LVL0:
  27              	.LFB65:
   1:External/bootloader/Src/bootloader_io.c **** #include "bootloader_io.h"
   2:External/bootloader/Src/bootloader_io.c **** #include "stm32f1xx.h"
   3:External/bootloader/Src/bootloader_io.c **** #include "stm32f1xx_hal_uart.h"
   4:External/bootloader/Src/bootloader_io.c **** 
   5:External/bootloader/Src/bootloader_io.c **** extern UART_HandleTypeDef *bootloader_uart;
   6:External/bootloader/Src/bootloader_io.c **** 
   7:External/bootloader/Src/bootloader_io.c **** bootloader_status bootloader_io_read(
   8:External/bootloader/Src/bootloader_io.c ****     const uint8_t *const data,
   9:External/bootloader/Src/bootloader_io.c ****     const uint16_t size
  10:External/bootloader/Src/bootloader_io.c **** )
  11:External/bootloader/Src/bootloader_io.c **** {
  28              		.loc 1 11 1 view -0
  29              		.cfi_startproc
  30              		@ args = 0, pretend = 0, frame = 0
  31              		@ frame_needed = 0, uses_anonymous_args = 0
  32              		.loc 1 11 1 is_stmt 0 view .LVU1
  33 0000 08B5     		push	{r3, lr}
  34              	.LCFI0:
  35              		.cfi_def_cfa_offset 8
  36              		.cfi_offset 3, -8
  37              		.cfi_offset 14, -4
  38 0002 0A46     		mov	r2, r1
  12:External/bootloader/Src/bootloader_io.c ****     return (bootloader_status)HAL_UART_Receive(
  39              		.loc 1 12 5 is_stmt 1 view .LVU2
  40              		.loc 1 12 31 is_stmt 0 view .LVU3
  41 0004 6423     		movs	r3, #100
  42 0006 0146     		mov	r1, r0
  43              	.LVL1:
  44              		.loc 1 12 31 view .LVU4
  45 0008 0248     		ldr	r0, .L3
  46              	.LVL2:
ARM GAS  /tmp/cccH7pbl.s 			page 2


  47              		.loc 1 12 31 view .LVU5
  48 000a 0068     		ldr	r0, [r0]
  49 000c FFF7FEFF 		bl	HAL_UART_Receive
  50              	.LVL3:
  13:External/bootloader/Src/bootloader_io.c ****         bootloader_uart,
  14:External/bootloader/Src/bootloader_io.c ****         (uint8_t*)data,
  15:External/bootloader/Src/bootloader_io.c ****         size,
  16:External/bootloader/Src/bootloader_io.c ****         UART_DELAY
  17:External/bootloader/Src/bootloader_io.c ****     );
  18:External/bootloader/Src/bootloader_io.c **** }
  51              		.loc 1 18 1 view .LVU6
  52 0010 08BD     		pop	{r3, pc}
  53              	.L4:
  54 0012 00BF     		.align	2
  55              	.L3:
  56 0014 00000000 		.word	bootloader_uart
  57              		.cfi_endproc
  58              	.LFE65:
  60              		.section	.text.bootloader_io_write,"ax",%progbits
  61              		.align	1
  62              		.global	bootloader_io_write
  63              		.syntax unified
  64              		.thumb
  65              		.thumb_func
  67              	bootloader_io_write:
  68              	.LVL4:
  69              	.LFB66:
  19:External/bootloader/Src/bootloader_io.c **** 
  20:External/bootloader/Src/bootloader_io.c **** bootloader_status bootloader_io_write(
  21:External/bootloader/Src/bootloader_io.c ****     uint8_t *const data,
  22:External/bootloader/Src/bootloader_io.c ****     const uint16_t size
  23:External/bootloader/Src/bootloader_io.c **** )
  24:External/bootloader/Src/bootloader_io.c **** {
  70              		.loc 1 24 1 is_stmt 1 view -0
  71              		.cfi_startproc
  72              		@ args = 0, pretend = 0, frame = 0
  73              		@ frame_needed = 0, uses_anonymous_args = 0
  74              		.loc 1 24 1 is_stmt 0 view .LVU8
  75 0000 08B5     		push	{r3, lr}
  76              	.LCFI1:
  77              		.cfi_def_cfa_offset 8
  78              		.cfi_offset 3, -8
  79              		.cfi_offset 14, -4
  80 0002 0A46     		mov	r2, r1
  25:External/bootloader/Src/bootloader_io.c ****     return (bootloader_status)HAL_UART_Transmit(
  81              		.loc 1 25 5 is_stmt 1 view .LVU9
  82              		.loc 1 25 31 is_stmt 0 view .LVU10
  83 0004 6423     		movs	r3, #100
  84 0006 0146     		mov	r1, r0
  85              	.LVL5:
  86              		.loc 1 25 31 view .LVU11
  87 0008 0248     		ldr	r0, .L7
  88              	.LVL6:
  89              		.loc 1 25 31 view .LVU12
  90 000a 0068     		ldr	r0, [r0]
  91 000c FFF7FEFF 		bl	HAL_UART_Transmit
  92              	.LVL7:
ARM GAS  /tmp/cccH7pbl.s 			page 3


  26:External/bootloader/Src/bootloader_io.c ****         bootloader_uart,
  27:External/bootloader/Src/bootloader_io.c ****         (uint8_t*)data,
  28:External/bootloader/Src/bootloader_io.c ****         size,
  29:External/bootloader/Src/bootloader_io.c ****         UART_DELAY
  30:External/bootloader/Src/bootloader_io.c ****     );
  31:External/bootloader/Src/bootloader_io.c **** }
  93              		.loc 1 31 1 view .LVU13
  94 0010 08BD     		pop	{r3, pc}
  95              	.L8:
  96 0012 00BF     		.align	2
  97              	.L7:
  98 0014 00000000 		.word	bootloader_uart
  99              		.cfi_endproc
 100              	.LFE66:
 102              		.section	.text.bootloader_io_get_dev_id,"ax",%progbits
 103              		.align	1
 104              		.global	bootloader_io_get_dev_id
 105              		.syntax unified
 106              		.thumb
 107              		.thumb_func
 109              	bootloader_io_get_dev_id:
 110              	.LFB67:
  32:External/bootloader/Src/bootloader_io.c **** 
  33:External/bootloader/Src/bootloader_io.c **** uint32_t bootloader_io_get_dev_id()
  34:External/bootloader/Src/bootloader_io.c **** {
 111              		.loc 1 34 1 is_stmt 1 view -0
 112              		.cfi_startproc
 113              		@ args = 0, pretend = 0, frame = 0
 114              		@ frame_needed = 0, uses_anonymous_args = 0
 115 0000 08B5     		push	{r3, lr}
 116              	.LCFI2:
 117              		.cfi_def_cfa_offset 8
 118              		.cfi_offset 3, -8
 119              		.cfi_offset 14, -4
  35:External/bootloader/Src/bootloader_io.c ****     return HAL_GetDEVID();
 120              		.loc 1 35 5 view .LVU15
 121              		.loc 1 35 12 is_stmt 0 view .LVU16
 122 0002 FFF7FEFF 		bl	HAL_GetDEVID
 123              	.LVL8:
  36:External/bootloader/Src/bootloader_io.c **** }
 124              		.loc 1 36 1 view .LVU17
 125 0006 08BD     		pop	{r3, pc}
 126              		.cfi_endproc
 127              	.LFE67:
 129              		.section	.text.bootloader_io_program,"ax",%progbits
 130              		.align	1
 131              		.global	bootloader_io_program
 132              		.syntax unified
 133              		.thumb
 134              		.thumb_func
 136              	bootloader_io_program:
 137              	.LVL9:
 138              	.LFB68:
  37:External/bootloader/Src/bootloader_io.c **** 
  38:External/bootloader/Src/bootloader_io.c **** bootloader_status bootloader_io_program(
  39:External/bootloader/Src/bootloader_io.c ****     uint32_t address,
  40:External/bootloader/Src/bootloader_io.c ****     const uint8_t *const data
ARM GAS  /tmp/cccH7pbl.s 			page 4


  41:External/bootloader/Src/bootloader_io.c **** )
  42:External/bootloader/Src/bootloader_io.c **** {
 139              		.loc 1 42 1 is_stmt 1 view -0
 140              		.cfi_startproc
 141              		@ args = 0, pretend = 0, frame = 24
 142              		@ frame_needed = 0, uses_anonymous_args = 0
  43:External/bootloader/Src/bootloader_io.c ****   // 128 pages
  44:External/bootloader/Src/bootloader_io.c ****   if (
 143              		.loc 1 44 3 view .LVU19
 144              		.loc 1 44 6 is_stmt 0 view .LVU20
 145 0000 0F4B     		ldr	r3, .L20
 146 0002 9842     		cmp	r0, r3
 147 0004 1AD3     		bcc	.L13
  42:External/bootloader/Src/bootloader_io.c ****   // 128 pages
 148              		.loc 1 42 1 view .LVU21
 149 0006 10B5     		push	{r4, lr}
 150              	.LCFI3:
 151              		.cfi_def_cfa_offset 8
 152              		.cfi_offset 4, -8
 153              		.cfi_offset 14, -4
 154 0008 86B0     		sub	sp, sp, #24
 155              	.LCFI4:
 156              		.cfi_def_cfa_offset 32
 157 000a 0446     		mov	r4, r0
  45:External/bootloader/Src/bootloader_io.c ****     address < APP_START_ADDRESS || 
  46:External/bootloader/Src/bootloader_io.c ****     address + sizeof(uint32_t) >= FLASH_BANK1_END
 158              		.loc 1 46 13 view .LVU22
 159 000c 021D     		adds	r2, r0, #4
  45:External/bootloader/Src/bootloader_io.c ****     address < APP_START_ADDRESS || 
 160              		.loc 1 45 33 view .LVU23
 161 000e 0D4B     		ldr	r3, .L20+4
 162 0010 9A42     		cmp	r2, r3
 163 0012 02D3     		bcc	.L19
  47:External/bootloader/Src/bootloader_io.c ****   )
  48:External/bootloader/Src/bootloader_io.c ****     return BOOTLOADER_BOUNDS_ERROR;
 164              		.loc 1 48 12 view .LVU24
 165 0014 0420     		movs	r0, #4
 166              	.LVL10:
 167              	.L12:
  49:External/bootloader/Src/bootloader_io.c **** 
  50:External/bootloader/Src/bootloader_io.c ****   HAL_StatusTypeDef status = HAL_FLASH_OB_Unlock();
  51:External/bootloader/Src/bootloader_io.c **** 
  52:External/bootloader/Src/bootloader_io.c ****   status = HAL_FLASH_Unlock();
  53:External/bootloader/Src/bootloader_io.c **** 
  54:External/bootloader/Src/bootloader_io.c ****   FLASH_EraseInitTypeDef erase_init_struct = (FLASH_EraseInitTypeDef){
  55:External/bootloader/Src/bootloader_io.c ****     .TypeErase = FLASH_TYPEERASE_PAGES,
  56:External/bootloader/Src/bootloader_io.c ****     .Banks = FLASH_BANK_1,
  57:External/bootloader/Src/bootloader_io.c ****     .PageAddress = address,
  58:External/bootloader/Src/bootloader_io.c ****     .NbPages = 1
  59:External/bootloader/Src/bootloader_io.c ****   };
  60:External/bootloader/Src/bootloader_io.c ****   uint32_t page_error = 0x0U;
  61:External/bootloader/Src/bootloader_io.c **** 
  62:External/bootloader/Src/bootloader_io.c ****   status |= HAL_FLASHEx_Erase(&erase_init_struct, &page_error);
  63:External/bootloader/Src/bootloader_io.c **** 
  64:External/bootloader/Src/bootloader_io.c ****   if (status != ~0x0)
  65:External/bootloader/Src/bootloader_io.c ****     return BOOTLOADER_FLASH_PAGE_ERROR; 
  66:External/bootloader/Src/bootloader_io.c ****   if (status)
ARM GAS  /tmp/cccH7pbl.s 			page 5


  67:External/bootloader/Src/bootloader_io.c ****     return (bootloader_status)status;
  68:External/bootloader/Src/bootloader_io.c **** 
  69:External/bootloader/Src/bootloader_io.c ****   for (uint8_t i = 0; i < 16; i++)
  70:External/bootloader/Src/bootloader_io.c ****   {
  71:External/bootloader/Src/bootloader_io.c ****      status |= HAL_FLASH_Program(
  72:External/bootloader/Src/bootloader_io.c ****       FLASH_TYPEPROGRAM_WORD,
  73:External/bootloader/Src/bootloader_io.c ****       address,
  74:External/bootloader/Src/bootloader_io.c ****       data
  75:External/bootloader/Src/bootloader_io.c ****     );
  76:External/bootloader/Src/bootloader_io.c ****   }
  77:External/bootloader/Src/bootloader_io.c **** 
  78:External/bootloader/Src/bootloader_io.c ****   status |= HAL_FLASH_Lock();
  79:External/bootloader/Src/bootloader_io.c **** 
  80:External/bootloader/Src/bootloader_io.c ****   return (bootloader_status)status;
  81:External/bootloader/Src/bootloader_io.c **** }
 168              		.loc 1 81 1 view .LVU25
 169 0016 06B0     		add	sp, sp, #24
 170              	.LCFI5:
 171              		.cfi_remember_state
 172              		.cfi_def_cfa_offset 8
 173              		@ sp needed
 174 0018 10BD     		pop	{r4, pc}
 175              	.LVL11:
 176              	.L19:
 177              	.LCFI6:
 178              		.cfi_restore_state
  50:External/bootloader/Src/bootloader_io.c **** 
 179              		.loc 1 50 3 is_stmt 1 view .LVU26
  50:External/bootloader/Src/bootloader_io.c **** 
 180              		.loc 1 50 30 is_stmt 0 view .LVU27
 181 001a FFF7FEFF 		bl	HAL_FLASH_OB_Unlock
 182              	.LVL12:
  52:External/bootloader/Src/bootloader_io.c **** 
 183              		.loc 1 52 3 is_stmt 1 view .LVU28
  52:External/bootloader/Src/bootloader_io.c **** 
 184              		.loc 1 52 12 is_stmt 0 view .LVU29
 185 001e FFF7FEFF 		bl	HAL_FLASH_Unlock
 186              	.LVL13:
  54:External/bootloader/Src/bootloader_io.c ****     .TypeErase = FLASH_TYPEERASE_PAGES,
 187              		.loc 1 54 3 is_stmt 1 view .LVU30
  54:External/bootloader/Src/bootloader_io.c ****     .TypeErase = FLASH_TYPEERASE_PAGES,
 188              		.loc 1 54 26 is_stmt 0 view .LVU31
 189 0022 0023     		movs	r3, #0
 190 0024 0293     		str	r3, [sp, #8]
 191 0026 0122     		movs	r2, #1
 192 0028 0392     		str	r2, [sp, #12]
 193 002a 0494     		str	r4, [sp, #16]
 194 002c 0592     		str	r2, [sp, #20]
  60:External/bootloader/Src/bootloader_io.c **** 
 195              		.loc 1 60 3 is_stmt 1 view .LVU32
  60:External/bootloader/Src/bootloader_io.c **** 
 196              		.loc 1 60 12 is_stmt 0 view .LVU33
 197 002e 0193     		str	r3, [sp, #4]
  62:External/bootloader/Src/bootloader_io.c **** 
 198              		.loc 1 62 3 is_stmt 1 view .LVU34
  62:External/bootloader/Src/bootloader_io.c **** 
 199              		.loc 1 62 13 is_stmt 0 view .LVU35
ARM GAS  /tmp/cccH7pbl.s 			page 6


 200 0030 01A9     		add	r1, sp, #4
 201 0032 02A8     		add	r0, sp, #8
 202 0034 FFF7FEFF 		bl	HAL_FLASHEx_Erase
 203              	.LVL14:
  64:External/bootloader/Src/bootloader_io.c ****     return BOOTLOADER_FLASH_PAGE_ERROR; 
 204              		.loc 1 64 3 is_stmt 1 view .LVU36
  65:External/bootloader/Src/bootloader_io.c ****   if (status)
 205              		.loc 1 65 5 view .LVU37
  65:External/bootloader/Src/bootloader_io.c ****   if (status)
 206              		.loc 1 65 12 is_stmt 0 view .LVU38
 207 0038 0520     		movs	r0, #5
 208 003a ECE7     		b	.L12
 209              	.LVL15:
 210              	.L13:
 211              	.LCFI7:
 212              		.cfi_def_cfa_offset 0
 213              		.cfi_restore 4
 214              		.cfi_restore 14
  48:External/bootloader/Src/bootloader_io.c **** 
 215              		.loc 1 48 12 view .LVU39
 216 003c 0420     		movs	r0, #4
 217              	.LVL16:
 218              		.loc 1 81 1 view .LVU40
 219 003e 7047     		bx	lr
 220              	.L21:
 221              		.align	2
 222              	.L20:
 223 0040 00280008 		.word	134227968
 224 0044 FFFF0108 		.word	134348799
 225              		.cfi_endproc
 226              	.LFE68:
 228              		.text
 229              	.Letext0:
 230              		.file 2 "/usr/local/src/arm-gnu-toolchain-13.2/arm-none-eabi/include/machine/_default_types.h"
 231              		.file 3 "/usr/local/src/arm-gnu-toolchain-13.2/arm-none-eabi/include/sys/_stdint.h"
 232              		.file 4 "External/bootloader/Inc/bootloader_defs.h"
 233              		.file 5 "Drivers/CMSIS/Device/ST/STM32F1xx/Include/stm32f103xb.h"
 234              		.file 6 "Drivers/STM32F1xx_HAL_Driver/Inc/stm32f1xx_hal_def.h"
 235              		.file 7 "Drivers/STM32F1xx_HAL_Driver/Inc/stm32f1xx_hal_dma.h"
 236              		.file 8 "Drivers/STM32F1xx_HAL_Driver/Inc/stm32f1xx_hal_flash_ex.h"
 237              		.file 9 "Drivers/STM32F1xx_HAL_Driver/Inc/stm32f1xx_hal_uart.h"
 238              		.file 10 "Drivers/STM32F1xx_HAL_Driver/Inc/stm32f1xx_hal_flash.h"
 239              		.file 11 "Drivers/STM32F1xx_HAL_Driver/Inc/stm32f1xx_hal.h"
ARM GAS  /tmp/cccH7pbl.s 			page 7

