ARM GAS  /tmp/ccLZXbg2.s 			page 1


   1              		.cpu cortex-m3
   2              		.arch armv7-m
   3              		.fpu softvfp
   4              		.eabi_attribute 20, 1
   5              		.eabi_attribute 21, 1
   6              		.eabi_attribute 23, 3
   7              		.eabi_attribute 24, 1
   8              		.eabi_attribute 25, 1
   9              		.eabi_attribute 26, 1
  10              		.eabi_attribute 30, 1
  11              		.eabi_attribute 34, 1
  12              		.eabi_attribute 18, 4
  13              		.file	"bootloader_cmd.c"
  14              		.text
  15              	.Ltext0:
  16              		.cfi_sections	.debug_frame
  17              		.file 1 "External/bootloader/Src/bootloader_cmd.c"
  18              		.section	.text.send_response,"ax",%progbits
  19              		.align	1
  20              		.syntax unified
  21              		.thumb
  22              		.thumb_func
  24              	send_response:
  25              	.LVL0:
  26              	.LFB2:
   1:External/bootloader/Src/bootloader_cmd.c **** #include "bootloader_cmd.h"
   2:External/bootloader/Src/bootloader_cmd.c **** #include "bootloader_defs.h"
   3:External/bootloader/Src/bootloader_cmd.c **** #include <string.h>
   4:External/bootloader/Src/bootloader_cmd.c **** #include <stdbool.h>
   5:External/bootloader/Src/bootloader_cmd.c **** 
   6:External/bootloader/Src/bootloader_cmd.c **** static char *start_message = "-FlexyPixel Bootloader."
   7:External/bootloader/Src/bootloader_cmd.c ****   " Type '0' for commands list";
   8:External/bootloader/Src/bootloader_cmd.c **** static char *input_prompt = "\r\n>>";
   9:External/bootloader/Src/bootloader_cmd.c **** static char *commands_list_message = "\r\nCommands:\r\n"
  10:External/bootloader/Src/bootloader_cmd.c ****   "Get id of chip - '1';\r\n"
  11:External/bootloader/Src/bootloader_cmd.c ****   "Get bootloader version - '2';\r\n"
  12:External/bootloader/Src/bootloader_cmd.c ****   "Write to memory (2 bytes) - '3'.";
  13:External/bootloader/Src/bootloader_cmd.c **** static char *id_message = "\r\nChip ID: ";
  14:External/bootloader/Src/bootloader_cmd.c **** static char *bootloader_version_message = "\r\nBootloader version: ";
  15:External/bootloader/Src/bootloader_cmd.c **** 
  16:External/bootloader/Src/bootloader_cmd.c **** static uint8_t uart_buffer[UART_BUFFER_SIZE];
  17:External/bootloader/Src/bootloader_cmd.c **** 
  18:External/bootloader/Src/bootloader_cmd.c **** // Static functions ----------------------------------------------------------
  19:External/bootloader/Src/bootloader_cmd.c **** 
  20:External/bootloader/Src/bootloader_cmd.c **** __attribute__((always_inline))
  21:External/bootloader/Src/bootloader_cmd.c **** inline static void swap(uint8_t *a, uint8_t *b)
  22:External/bootloader/Src/bootloader_cmd.c **** {
  23:External/bootloader/Src/bootloader_cmd.c ****   *a = *a ^ *b;
  24:External/bootloader/Src/bootloader_cmd.c ****   *b = *a ^ *b;
  25:External/bootloader/Src/bootloader_cmd.c ****   *a = *b ^ *a;
  26:External/bootloader/Src/bootloader_cmd.c **** }
  27:External/bootloader/Src/bootloader_cmd.c **** 
  28:External/bootloader/Src/bootloader_cmd.c **** __attribute__((always_inline))
  29:External/bootloader/Src/bootloader_cmd.c **** inline static uint8_t int_to_string(uint8_t *const buffer, uint32_t num)
  30:External/bootloader/Src/bootloader_cmd.c **** {
  31:External/bootloader/Src/bootloader_cmd.c ****   int i = 0;
  32:External/bootloader/Src/bootloader_cmd.c ****     
ARM GAS  /tmp/ccLZXbg2.s 			page 2


  33:External/bootloader/Src/bootloader_cmd.c ****   do {
  34:External/bootloader/Src/bootloader_cmd.c ****     buffer[i++] = num % 10 + '0';
  35:External/bootloader/Src/bootloader_cmd.c ****     num /= 10;
  36:External/bootloader/Src/bootloader_cmd.c ****   } while (num > 0);
  37:External/bootloader/Src/bootloader_cmd.c ****   buffer[i] = '\0';
  38:External/bootloader/Src/bootloader_cmd.c **** 
  39:External/bootloader/Src/bootloader_cmd.c ****   // Reverse string
  40:External/bootloader/Src/bootloader_cmd.c ****   int j = 0;
  41:External/bootloader/Src/bootloader_cmd.c ****   while (j < i / 2) {
  42:External/bootloader/Src/bootloader_cmd.c ****     swap(buffer + j, buffer + (i - j - 1));
  43:External/bootloader/Src/bootloader_cmd.c ****     j++;
  44:External/bootloader/Src/bootloader_cmd.c ****   }
  45:External/bootloader/Src/bootloader_cmd.c **** 
  46:External/bootloader/Src/bootloader_cmd.c ****   return i;
  47:External/bootloader/Src/bootloader_cmd.c **** }
  48:External/bootloader/Src/bootloader_cmd.c **** 
  49:External/bootloader/Src/bootloader_cmd.c **** static void send_response(bootloader_status status)
  50:External/bootloader/Src/bootloader_cmd.c **** {
  27              		.loc 1 50 1 view -0
  28              		.cfi_startproc
  29              		@ args = 0, pretend = 0, frame = 0
  30              		@ frame_needed = 0, uses_anonymous_args = 0
  31              		.loc 1 50 1 is_stmt 0 view .LVU1
  32 0000 08B5     		push	{r3, lr}
  33              	.LCFI0:
  34              		.cfi_def_cfa_offset 8
  35              		.cfi_offset 3, -8
  36              		.cfi_offset 14, -4
  51:External/bootloader/Src/bootloader_cmd.c ****   if (status)
  37              		.loc 1 51 3 is_stmt 1 view .LVU2
  38              		.loc 1 51 6 is_stmt 0 view .LVU3
  39 0002 38B1     		cbz	r0, .L2
  52:External/bootloader/Src/bootloader_cmd.c ****     uart_buffer[0] = NACK_BYTE;
  40              		.loc 1 52 5 is_stmt 1 view .LVU4
  41              		.loc 1 52 20 is_stmt 0 view .LVU5
  42 0004 054B     		ldr	r3, .L5
  43 0006 AA22     		movs	r2, #170
  44 0008 1A70     		strb	r2, [r3]
  45              	.L3:
  53:External/bootloader/Src/bootloader_cmd.c ****   else
  54:External/bootloader/Src/bootloader_cmd.c ****     uart_buffer[0] = ACK_BYTE;
  55:External/bootloader/Src/bootloader_cmd.c ****   (void)bootloader_io_write(uart_buffer, 1);
  46              		.loc 1 55 3 is_stmt 1 view .LVU6
  47              		.loc 1 55 9 is_stmt 0 view .LVU7
  48 000a 0121     		movs	r1, #1
  49 000c 0348     		ldr	r0, .L5
  50              	.LVL1:
  51              		.loc 1 55 9 view .LVU8
  52 000e FFF7FEFF 		bl	bootloader_io_write
  53              	.LVL2:
  56:External/bootloader/Src/bootloader_cmd.c **** }
  54              		.loc 1 56 1 view .LVU9
  55 0012 08BD     		pop	{r3, pc}
  56              	.LVL3:
  57              	.L2:
  54:External/bootloader/Src/bootloader_cmd.c ****   (void)bootloader_io_write(uart_buffer, 1);
  58              		.loc 1 54 5 is_stmt 1 view .LVU10
ARM GAS  /tmp/ccLZXbg2.s 			page 3


  54:External/bootloader/Src/bootloader_cmd.c ****   (void)bootloader_io_write(uart_buffer, 1);
  59              		.loc 1 54 20 is_stmt 0 view .LVU11
  60 0014 014B     		ldr	r3, .L5
  61 0016 5522     		movs	r2, #85
  62 0018 1A70     		strb	r2, [r3]
  63 001a F6E7     		b	.L3
  64              	.L6:
  65              		.align	2
  66              	.L5:
  67 001c 00000000 		.word	uart_buffer
  68              		.cfi_endproc
  69              	.LFE2:
  71              		.section	.rodata.cmd_help.str1.4,"aMS",%progbits,1
  72              		.align	2
  73              	.LC0:
  74 0000 0D0A436F 		.ascii	"\015\012Commands:\015\012Get id of chip - '1';\015\012"
  74      6D6D616E 
  74      64733A0D 
  74      0A476574 
  74      20696420 
  75 0024 47657420 		.ascii	"Get bootloader version - '2';\015\012Write to memor"
  75      626F6F74 
  75      6C6F6164 
  75      65722076 
  75      65727369 
  76 0051 79202832 		.ascii	"y (2 bytes) - '3'.\000"
  76      20627974 
  76      65732920 
  76      2D202733 
  76      272E00
  77              		.section	.text.cmd_help,"ax",%progbits
  78              		.align	1
  79              		.syntax unified
  80              		.thumb
  81              		.thumb_func
  83              	cmd_help:
  84              	.LFB3:
  57:External/bootloader/Src/bootloader_cmd.c **** 
  58:External/bootloader/Src/bootloader_cmd.c **** static void cmd_help()
  59:External/bootloader/Src/bootloader_cmd.c **** {
  85              		.loc 1 59 1 is_stmt 1 view -0
  86              		.cfi_startproc
  87              		@ args = 0, pretend = 0, frame = 0
  88              		@ frame_needed = 0, uses_anonymous_args = 0
  89 0000 38B5     		push	{r3, r4, r5, lr}
  90              	.LCFI1:
  91              		.cfi_def_cfa_offset 16
  92              		.cfi_offset 3, -16
  93              		.cfi_offset 4, -12
  94              		.cfi_offset 5, -8
  95              		.cfi_offset 14, -4
  60:External/bootloader/Src/bootloader_cmd.c ****   strncpy(
  96              		.loc 1 60 3 view .LVU13
  97              		.loc 1 60 3 is_stmt 0 discriminator 1 view .LVU14
  98 0002 064C     		ldr	r4, .L9
  99 0004 6325     		movs	r5, #99
 100 0006 2A46     		mov	r2, r5
ARM GAS  /tmp/ccLZXbg2.s 			page 4


 101 0008 0549     		ldr	r1, .L9+4
 102 000a 2046     		mov	r0, r4
 103 000c FFF7FEFF 		bl	memcpy
 104              	.LVL4:
  61:External/bootloader/Src/bootloader_cmd.c ****     (char*)uart_buffer,
  62:External/bootloader/Src/bootloader_cmd.c ****     commands_list_message,
  63:External/bootloader/Src/bootloader_cmd.c ****     strlen(commands_list_message)
  64:External/bootloader/Src/bootloader_cmd.c ****   );
  65:External/bootloader/Src/bootloader_cmd.c ****   bootloader_io_write(uart_buffer, strlen(commands_list_message));
 105              		.loc 1 65 3 is_stmt 1 view .LVU15
 106              		.loc 1 65 3 is_stmt 0 discriminator 1 view .LVU16
 107 0010 2946     		mov	r1, r5
 108 0012 2046     		mov	r0, r4
 109 0014 FFF7FEFF 		bl	bootloader_io_write
 110              	.LVL5:
  66:External/bootloader/Src/bootloader_cmd.c **** }
 111              		.loc 1 66 1 view .LVU17
 112 0018 38BD     		pop	{r3, r4, r5, pc}
 113              	.L10:
 114 001a 00BF     		.align	2
 115              	.L9:
 116 001c 00000000 		.word	uart_buffer
 117 0020 00000000 		.word	.LC0
 118              		.cfi_endproc
 119              	.LFE3:
 121              		.section	.rodata.cmd_get_bootloader_version.str1.4,"aMS",%progbits,1
 122              		.align	2
 123              	.LC1:
 124 0000 0D0A426F 		.ascii	"\015\012Bootloader version: \000"
 124      6F746C6F 
 124      61646572 
 124      20766572 
 124      73696F6E 
 125              		.section	.text.cmd_get_bootloader_version,"ax",%progbits
 126              		.align	1
 127              		.syntax unified
 128              		.thumb
 129              		.thumb_func
 131              	cmd_get_bootloader_version:
 132              	.LFB5:
  67:External/bootloader/Src/bootloader_cmd.c **** 
  68:External/bootloader/Src/bootloader_cmd.c **** static void cmd_get_id()
  69:External/bootloader/Src/bootloader_cmd.c **** {
  70:External/bootloader/Src/bootloader_cmd.c ****   strncpy((char*)uart_buffer, id_message, strlen(id_message) + 1);
  71:External/bootloader/Src/bootloader_cmd.c ****   bootloader_io_write(uart_buffer, strlen(id_message) + 1);
  72:External/bootloader/Src/bootloader_cmd.c **** 
  73:External/bootloader/Src/bootloader_cmd.c ****   uint8_t size = int_to_string(uart_buffer, bootloader_io_get_dev_id());
  74:External/bootloader/Src/bootloader_cmd.c ****   bootloader_io_write(uart_buffer, size);
  75:External/bootloader/Src/bootloader_cmd.c **** }
  76:External/bootloader/Src/bootloader_cmd.c **** 
  77:External/bootloader/Src/bootloader_cmd.c **** static void cmd_get_bootloader_version()
  78:External/bootloader/Src/bootloader_cmd.c **** {
 133              		.loc 1 78 1 is_stmt 1 view -0
 134              		.cfi_startproc
 135              		@ args = 0, pretend = 0, frame = 0
 136              		@ frame_needed = 0, uses_anonymous_args = 0
 137 0000 38B5     		push	{r3, r4, r5, lr}
ARM GAS  /tmp/ccLZXbg2.s 			page 5


 138              	.LCFI2:
 139              		.cfi_def_cfa_offset 16
 140              		.cfi_offset 3, -16
 141              		.cfi_offset 4, -12
 142              		.cfi_offset 5, -8
 143              		.cfi_offset 14, -4
  79:External/bootloader/Src/bootloader_cmd.c ****   strncpy(
 144              		.loc 1 79 3 view .LVU19
 145 0002 0F4D     		ldr	r5, .L13
 146 0004 AC46     		mov	ip, r5
 147 0006 0F4C     		ldr	r4, .L13+4
 148 0008 0FCC     		ldmia	r4!, {r0, r1, r2, r3}
 149 000a ACE80F00 		stmia	ip!, {r0, r1, r2, r3}
 150 000e 94E80300 		ldm	r4, {r0, r1}
 151 0012 4CF8040B 		str	r0, [ip], #4
 152 0016 2CF8021B 		strh	r1, [ip], #2	@ movhi
 153 001a 090C     		lsrs	r1, r1, #16
 154 001c 8CF80010 		strb	r1, [ip]
  80:External/bootloader/Src/bootloader_cmd.c ****     (char*)uart_buffer,
  81:External/bootloader/Src/bootloader_cmd.c ****     bootloader_version_message,
  82:External/bootloader/Src/bootloader_cmd.c ****     strlen(bootloader_version_message) + 1
  83:External/bootloader/Src/bootloader_cmd.c ****   );
  84:External/bootloader/Src/bootloader_cmd.c ****   bootloader_io_write(uart_buffer, strlen(bootloader_version_message) + 1);
 155              		.loc 1 84 3 view .LVU20
 156              		.loc 1 84 3 is_stmt 0 discriminator 1 view .LVU21
 157 0020 1721     		movs	r1, #23
 158 0022 2846     		mov	r0, r5
 159 0024 FFF7FEFF 		bl	bootloader_io_write
 160              	.LVL6:
  85:External/bootloader/Src/bootloader_cmd.c **** 
  86:External/bootloader/Src/bootloader_cmd.c ****   uart_buffer[0] = BOOTLOADER_VER_MAJOR;
 161              		.loc 1 86 3 is_stmt 1 view .LVU22
 162              		.loc 1 86 18 is_stmt 0 view .LVU23
 163 0028 3023     		movs	r3, #48
 164 002a 2B70     		strb	r3, [r5]
  87:External/bootloader/Src/bootloader_cmd.c ****   uart_buffer[1] = '.';
 165              		.loc 1 87 3 is_stmt 1 view .LVU24
 166              		.loc 1 87 18 is_stmt 0 view .LVU25
 167 002c 2E23     		movs	r3, #46
 168 002e 6B70     		strb	r3, [r5, #1]
  88:External/bootloader/Src/bootloader_cmd.c ****   uart_buffer[2] = BOOTLOADER_VER_MINOR;
 169              		.loc 1 88 3 is_stmt 1 view .LVU26
 170              		.loc 1 88 18 is_stmt 0 view .LVU27
 171 0030 3123     		movs	r3, #49
 172 0032 AB70     		strb	r3, [r5, #2]
  89:External/bootloader/Src/bootloader_cmd.c **** 
  90:External/bootloader/Src/bootloader_cmd.c ****   bootloader_io_write(uart_buffer, 3);
 173              		.loc 1 90 3 is_stmt 1 view .LVU28
 174 0034 0321     		movs	r1, #3
 175 0036 2846     		mov	r0, r5
 176 0038 FFF7FEFF 		bl	bootloader_io_write
 177              	.LVL7:
  91:External/bootloader/Src/bootloader_cmd.c **** }
 178              		.loc 1 91 1 is_stmt 0 view .LVU29
 179 003c 38BD     		pop	{r3, r4, r5, pc}
 180              	.L14:
 181 003e 00BF     		.align	2
ARM GAS  /tmp/ccLZXbg2.s 			page 6


 182              	.L13:
 183 0040 00000000 		.word	uart_buffer
 184 0044 00000000 		.word	.LC1
 185              		.cfi_endproc
 186              	.LFE5:
 188              		.section	.rodata.cmd_get_id.str1.4,"aMS",%progbits,1
 189              		.align	2
 190              	.LC2:
 191 0000 0D0A4368 		.ascii	"\015\012Chip ID: \000"
 191      69702049 
 191      443A2000 
 192              		.section	.text.cmd_get_id,"ax",%progbits
 193              		.align	1
 194              		.syntax unified
 195              		.thumb
 196              		.thumb_func
 198              	cmd_get_id:
 199              	.LFB4:
  69:External/bootloader/Src/bootloader_cmd.c ****   strncpy((char*)uart_buffer, id_message, strlen(id_message) + 1);
 200              		.loc 1 69 1 is_stmt 1 view -0
 201              		.cfi_startproc
 202              		@ args = 0, pretend = 0, frame = 0
 203              		@ frame_needed = 0, uses_anonymous_args = 0
 204 0000 10B5     		push	{r4, lr}
 205              	.LCFI3:
 206              		.cfi_def_cfa_offset 8
 207              		.cfi_offset 4, -8
 208              		.cfi_offset 14, -4
  70:External/bootloader/Src/bootloader_cmd.c ****   bootloader_io_write(uart_buffer, strlen(id_message) + 1);
 209              		.loc 1 70 3 view .LVU31
  70:External/bootloader/Src/bootloader_cmd.c ****   bootloader_io_write(uart_buffer, strlen(id_message) + 1);
 210              		.loc 1 70 3 is_stmt 0 discriminator 1 view .LVU32
 211 0002 1E4B     		ldr	r3, .L20
 212 0004 1E4A     		ldr	r2, .L20+4
 213 0006 07CA     		ldm	r2, {r0, r1, r2}
 214 0008 83E80700 		stm	r3, {r0, r1, r2}
  71:External/bootloader/Src/bootloader_cmd.c **** 
 215              		.loc 1 71 3 is_stmt 1 view .LVU33
  71:External/bootloader/Src/bootloader_cmd.c **** 
 216              		.loc 1 71 3 is_stmt 0 discriminator 1 view .LVU34
 217 000c 0C21     		movs	r1, #12
 218 000e 1846     		mov	r0, r3
 219 0010 FFF7FEFF 		bl	bootloader_io_write
 220              	.LVL8:
  73:External/bootloader/Src/bootloader_cmd.c ****   bootloader_io_write(uart_buffer, size);
 221              		.loc 1 73 3 is_stmt 1 view .LVU35
  73:External/bootloader/Src/bootloader_cmd.c ****   bootloader_io_write(uart_buffer, size);
 222              		.loc 1 73 18 is_stmt 0 view .LVU36
 223 0014 FFF7FEFF 		bl	bootloader_io_get_dev_id
 224              	.LVL9:
 225              	.LBB8:
 226              	.LBI8:
  29:External/bootloader/Src/bootloader_cmd.c **** {
 227              		.loc 1 29 23 is_stmt 1 view .LVU37
 228              	.LBB9:
  31:External/bootloader/Src/bootloader_cmd.c ****     
 229              		.loc 1 31 3 view .LVU38
ARM GAS  /tmp/ccLZXbg2.s 			page 7


  31:External/bootloader/Src/bootloader_cmd.c ****     
 230              		.loc 1 31 7 is_stmt 0 view .LVU39
 231 0018 0021     		movs	r1, #0
 232              	.LVL10:
 233              	.L16:
  33:External/bootloader/Src/bootloader_cmd.c ****     buffer[i++] = num % 10 + '0';
 234              		.loc 1 33 3 is_stmt 1 view .LVU40
  34:External/bootloader/Src/bootloader_cmd.c ****     num /= 10;
 235              		.loc 1 34 5 view .LVU41
  34:External/bootloader/Src/bootloader_cmd.c ****     num /= 10;
 236              		.loc 1 34 23 is_stmt 0 view .LVU42
 237 001a 1A4B     		ldr	r3, .L20+8
 238 001c A3FB0023 		umull	r2, r3, r3, r0
 239 0020 DB08     		lsrs	r3, r3, #3
 240 0022 9C46     		mov	ip, r3
 241 0024 03EB8303 		add	r3, r3, r3, lsl #2
 242 0028 A0EB4303 		sub	r3, r0, r3, lsl #1
  34:External/bootloader/Src/bootloader_cmd.c ****     num /= 10;
 243              		.loc 1 34 28 view .LVU43
 244 002c 3033     		adds	r3, r3, #48
  34:External/bootloader/Src/bootloader_cmd.c ****     num /= 10;
 245              		.loc 1 34 17 view .LVU44
 246 002e 134C     		ldr	r4, .L20
 247 0030 6354     		strb	r3, [r4, r1]
 248 0032 0131     		adds	r1, r1, #1
 249              	.LVL11:
  35:External/bootloader/Src/bootloader_cmd.c ****   } while (num > 0);
 250              		.loc 1 35 5 is_stmt 1 view .LVU45
 251 0034 0346     		mov	r3, r0
  35:External/bootloader/Src/bootloader_cmd.c ****   } while (num > 0);
 252              		.loc 1 35 9 is_stmt 0 view .LVU46
 253 0036 6046     		mov	r0, ip
 254              	.LVL12:
  36:External/bootloader/Src/bootloader_cmd.c ****   buffer[i] = '\0';
 255              		.loc 1 36 16 is_stmt 1 discriminator 1 view .LVU47
 256 0038 092B     		cmp	r3, #9
 257 003a EED8     		bhi	.L16
  37:External/bootloader/Src/bootloader_cmd.c **** 
 258              		.loc 1 37 3 view .LVU48
  37:External/bootloader/Src/bootloader_cmd.c **** 
 259              		.loc 1 37 13 is_stmt 0 view .LVU49
 260 003c 0022     		movs	r2, #0
 261 003e 6254     		strb	r2, [r4, r1]
  40:External/bootloader/Src/bootloader_cmd.c ****   while (j < i / 2) {
 262              		.loc 1 40 3 is_stmt 1 view .LVU50
 263              	.LVL13:
  41:External/bootloader/Src/bootloader_cmd.c ****     swap(buffer + j, buffer + (i - j - 1));
 264              		.loc 1 41 3 view .LVU51
  41:External/bootloader/Src/bootloader_cmd.c ****     swap(buffer + j, buffer + (i - j - 1));
 265              		.loc 1 41 9 is_stmt 0 view .LVU52
 266 0040 12E0     		b	.L17
 267              	.LVL14:
 268              	.L18:
  42:External/bootloader/Src/bootloader_cmd.c ****     j++;
 269              		.loc 1 42 5 is_stmt 1 view .LVU53
 270 0042 0E48     		ldr	r0, .L20
  42:External/bootloader/Src/bootloader_cmd.c ****     j++;
ARM GAS  /tmp/ccLZXbg2.s 			page 8


 271              		.loc 1 42 34 is_stmt 0 view .LVU54
 272 0044 A1EB020C 		sub	ip, r1, r2
  42:External/bootloader/Src/bootloader_cmd.c ****     j++;
 273              		.loc 1 42 29 view .LVU55
 274 0048 0CF1FF3C 		add	ip, ip, #-1
 275              	.LVL15:
 276              	.LBB10:
 277              	.LBI10:
  21:External/bootloader/Src/bootloader_cmd.c **** {
 278              		.loc 1 21 20 is_stmt 1 view .LVU56
 279              	.LBB11:
  23:External/bootloader/Src/bootloader_cmd.c ****   *b = *a ^ *b;
 280              		.loc 1 23 3 view .LVU57
  23:External/bootloader/Src/bootloader_cmd.c ****   *b = *a ^ *b;
 281              		.loc 1 23 8 is_stmt 0 view .LVU58
 282 004c 835C     		ldrb	r3, [r0, r2]	@ zero_extendqisi2
  23:External/bootloader/Src/bootloader_cmd.c ****   *b = *a ^ *b;
 283              		.loc 1 23 13 view .LVU59
 284 004e 10F80C40 		ldrb	r4, [r0, ip]	@ zero_extendqisi2
  23:External/bootloader/Src/bootloader_cmd.c ****   *b = *a ^ *b;
 285              		.loc 1 23 6 view .LVU60
 286 0052 6340     		eors	r3, r3, r4
 287 0054 8354     		strb	r3, [r0, r2]
  24:External/bootloader/Src/bootloader_cmd.c ****   *a = *b ^ *a;
 288              		.loc 1 24 3 is_stmt 1 view .LVU61
  24:External/bootloader/Src/bootloader_cmd.c ****   *a = *b ^ *a;
 289              		.loc 1 24 13 is_stmt 0 view .LVU62
 290 0056 10F80C40 		ldrb	r4, [r0, ip]	@ zero_extendqisi2
  24:External/bootloader/Src/bootloader_cmd.c ****   *a = *b ^ *a;
 291              		.loc 1 24 6 view .LVU63
 292 005a 6340     		eors	r3, r3, r4
 293 005c 00F80C30 		strb	r3, [r0, ip]
  25:External/bootloader/Src/bootloader_cmd.c **** }
 294              		.loc 1 25 3 is_stmt 1 view .LVU64
  25:External/bootloader/Src/bootloader_cmd.c **** }
 295              		.loc 1 25 13 is_stmt 0 view .LVU65
 296 0060 845C     		ldrb	r4, [r0, r2]	@ zero_extendqisi2
  25:External/bootloader/Src/bootloader_cmd.c **** }
 297              		.loc 1 25 6 view .LVU66
 298 0062 6340     		eors	r3, r3, r4
 299 0064 8354     		strb	r3, [r0, r2]
 300              	.LVL16:
  25:External/bootloader/Src/bootloader_cmd.c **** }
 301              		.loc 1 25 6 view .LVU67
 302              	.LBE11:
 303              	.LBE10:
  43:External/bootloader/Src/bootloader_cmd.c ****   }
 304              		.loc 1 43 5 is_stmt 1 view .LVU68
  43:External/bootloader/Src/bootloader_cmd.c ****   }
 305              		.loc 1 43 6 is_stmt 0 view .LVU69
 306 0066 0132     		adds	r2, r2, #1
 307              	.LVL17:
 308              	.L17:
  41:External/bootloader/Src/bootloader_cmd.c ****     swap(buffer + j, buffer + (i - j - 1));
 309              		.loc 1 41 12 is_stmt 1 view .LVU70
  41:External/bootloader/Src/bootloader_cmd.c ****     swap(buffer + j, buffer + (i - j - 1));
 310              		.loc 1 41 16 is_stmt 0 view .LVU71
ARM GAS  /tmp/ccLZXbg2.s 			page 9


 311 0068 01EBD173 		add	r3, r1, r1, lsr #31
  41:External/bootloader/Src/bootloader_cmd.c ****     swap(buffer + j, buffer + (i - j - 1));
 312              		.loc 1 41 12 view .LVU72
 313 006c B2EB630F 		cmp	r2, r3, asr #1
 314 0070 E7DB     		blt	.L18
  46:External/bootloader/Src/bootloader_cmd.c **** }
 315              		.loc 1 46 3 is_stmt 1 view .LVU73
 316              	.LVL18:
  46:External/bootloader/Src/bootloader_cmd.c **** }
 317              		.loc 1 46 3 is_stmt 0 view .LVU74
 318              	.LBE9:
 319              	.LBE8:
  74:External/bootloader/Src/bootloader_cmd.c **** }
 320              		.loc 1 74 3 is_stmt 1 view .LVU75
 321 0072 C9B2     		uxtb	r1, r1
  74:External/bootloader/Src/bootloader_cmd.c **** }
 322              		.loc 1 74 3 is_stmt 0 view .LVU76
 323 0074 0148     		ldr	r0, .L20
 324 0076 FFF7FEFF 		bl	bootloader_io_write
 325              	.LVL19:
  75:External/bootloader/Src/bootloader_cmd.c **** 
 326              		.loc 1 75 1 view .LVU77
 327 007a 10BD     		pop	{r4, pc}
 328              	.L21:
 329              		.align	2
 330              	.L20:
 331 007c 00000000 		.word	uart_buffer
 332 0080 00000000 		.word	.LC2
 333 0084 CDCCCCCC 		.word	-858993459
 334              		.cfi_endproc
 335              	.LFE4:
 337              		.section	.text.cmd_write,"ax",%progbits
 338              		.align	1
 339              		.syntax unified
 340              		.thumb
 341              		.thumb_func
 343              	cmd_write:
 344              	.LFB6:
  92:External/bootloader/Src/bootloader_cmd.c **** 
  93:External/bootloader/Src/bootloader_cmd.c **** // cmd_0: address (4 bytes)
  94:External/bootloader/Src/bootloader_cmd.c **** // cmd_0: data (2 bytes)
  95:External/bootloader/Src/bootloader_cmd.c **** static bootloader_status cmd_write()
  96:External/bootloader/Src/bootloader_cmd.c **** {
 345              		.loc 1 96 1 is_stmt 1 view -0
 346              		.cfi_startproc
 347              		@ args = 0, pretend = 0, frame = 8
 348              		@ frame_needed = 0, uses_anonymous_args = 0
 349 0000 30B5     		push	{r4, r5, lr}
 350              	.LCFI4:
 351              		.cfi_def_cfa_offset 12
 352              		.cfi_offset 4, -12
 353              		.cfi_offset 5, -8
 354              		.cfi_offset 14, -4
 355 0002 83B0     		sub	sp, sp, #12
 356              	.LCFI5:
 357              		.cfi_def_cfa_offset 24
  97:External/bootloader/Src/bootloader_cmd.c ****   uint32_t address = 0;
ARM GAS  /tmp/ccLZXbg2.s 			page 10


 358              		.loc 1 97 3 view .LVU79
 359              		.loc 1 97 12 is_stmt 0 view .LVU80
 360 0004 0025     		movs	r5, #0
 361 0006 0195     		str	r5, [sp, #4]
  98:External/bootloader/Src/bootloader_cmd.c ****   uint16_t data = 0;
 362              		.loc 1 98 3 is_stmt 1 view .LVU81
 363              		.loc 1 98 12 is_stmt 0 view .LVU82
 364 0008 ADF80250 		strh	r5, [sp, #2]	@ movhi
  99:External/bootloader/Src/bootloader_cmd.c ****   uint32_t num = 0;
 365              		.loc 1 99 3 is_stmt 1 view .LVU83
 366              	.LVL20:
 100:External/bootloader/Src/bootloader_cmd.c ****   bootloader_status status = BOOTLOADER_OK;
 367              		.loc 1 100 3 view .LVU84
 101:External/bootloader/Src/bootloader_cmd.c **** 
 102:External/bootloader/Src/bootloader_cmd.c ****   send_response(status);
 368              		.loc 1 102 3 view .LVU85
 369 000c 2846     		mov	r0, r5
 370 000e FFF7FEFF 		bl	send_response
 371              	.LVL21:
 100:External/bootloader/Src/bootloader_cmd.c ****   bootloader_status status = BOOTLOADER_OK;
 372              		.loc 1 100 21 is_stmt 0 view .LVU86
 373 0012 2C46     		mov	r4, r5
 374 0014 04E0     		b	.L25
 375              	.LVL22:
 376              	.L24:
 103:External/bootloader/Src/bootloader_cmd.c ****   while (true) {
 104:External/bootloader/Src/bootloader_cmd.c ****     status |= bootloader_io_read(
 105:External/bootloader/Src/bootloader_cmd.c ****       (uint8_t*)&address,
 106:External/bootloader/Src/bootloader_cmd.c ****       sizeof(uint32_t)
 107:External/bootloader/Src/bootloader_cmd.c ****     );
 108:External/bootloader/Src/bootloader_cmd.c ****     if (address == END_SUBSEQUENCE)
 109:External/bootloader/Src/bootloader_cmd.c ****       break;
 110:External/bootloader/Src/bootloader_cmd.c **** 
 111:External/bootloader/Src/bootloader_cmd.c ****     status |= bootloader_io_read((uint8_t*)&data, sizeof(uint16_t));
 112:External/bootloader/Src/bootloader_cmd.c **** 
 113:External/bootloader/Src/bootloader_cmd.c ****     if (status == BOOTLOADER_OK)
 114:External/bootloader/Src/bootloader_cmd.c ****       status |= bootloader_io_program(address, data);
 115:External/bootloader/Src/bootloader_cmd.c **** 
 116:External/bootloader/Src/bootloader_cmd.c ****     send_response(status);
 377              		.loc 1 116 5 is_stmt 1 view .LVU87
 378 0016 2046     		mov	r0, r4
 379 0018 FFF7FEFF 		bl	send_response
 380              	.LVL23:
 117:External/bootloader/Src/bootloader_cmd.c ****     if (status)
 381              		.loc 1 117 5 view .LVU88
 382              		.loc 1 117 8 is_stmt 0 view .LVU89
 383 001c ECB9     		cbnz	r4, .L23
 118:External/bootloader/Src/bootloader_cmd.c ****       break;
 119:External/bootloader/Src/bootloader_cmd.c ****     num++;
 384              		.loc 1 119 5 is_stmt 1 view .LVU90
 385              		.loc 1 119 8 is_stmt 0 view .LVU91
 386 001e 0135     		adds	r5, r5, #1
 387              	.LVL24:
 103:External/bootloader/Src/bootloader_cmd.c ****     status |= bootloader_io_read(
 388              		.loc 1 103 9 is_stmt 1 view .LVU92
 389              	.L25:
 103:External/bootloader/Src/bootloader_cmd.c ****     status |= bootloader_io_read(
ARM GAS  /tmp/ccLZXbg2.s 			page 11


 390              		.loc 1 103 3 view .LVU93
 104:External/bootloader/Src/bootloader_cmd.c ****       (uint8_t*)&address,
 391              		.loc 1 104 5 view .LVU94
 104:External/bootloader/Src/bootloader_cmd.c ****       (uint8_t*)&address,
 392              		.loc 1 104 15 is_stmt 0 view .LVU95
 393 0020 0421     		movs	r1, #4
 394 0022 0DEB0100 		add	r0, sp, r1
 395 0026 FFF7FEFF 		bl	bootloader_io_read
 396              	.LVL25:
 104:External/bootloader/Src/bootloader_cmd.c ****       (uint8_t*)&address,
 397              		.loc 1 104 12 discriminator 1 view .LVU96
 398 002a 0443     		orrs	r4, r4, r0
 399              	.LVL26:
 104:External/bootloader/Src/bootloader_cmd.c ****       (uint8_t*)&address,
 400              		.loc 1 104 12 discriminator 1 view .LVU97
 401 002c E4B2     		uxtb	r4, r4
 402              	.LVL27:
 108:External/bootloader/Src/bootloader_cmd.c ****       break;
 403              		.loc 1 108 5 is_stmt 1 view .LVU98
 108:External/bootloader/Src/bootloader_cmd.c ****       break;
 404              		.loc 1 108 8 is_stmt 0 view .LVU99
 405 002e 019A     		ldr	r2, [sp, #4]
 406 0030 4CF63343 		movw	r3, #52275
 407 0034 9A42     		cmp	r2, r3
 408 0036 10D0     		beq	.L23
 111:External/bootloader/Src/bootloader_cmd.c **** 
 409              		.loc 1 111 5 is_stmt 1 view .LVU100
 111:External/bootloader/Src/bootloader_cmd.c **** 
 410              		.loc 1 111 15 is_stmt 0 view .LVU101
 411 0038 0221     		movs	r1, #2
 412 003a 0DEB0100 		add	r0, sp, r1
 413 003e FFF7FEFF 		bl	bootloader_io_read
 414              	.LVL28:
 111:External/bootloader/Src/bootloader_cmd.c **** 
 415              		.loc 1 111 12 discriminator 1 view .LVU102
 416 0042 0443     		orrs	r4, r4, r0
 417              	.LVL29:
 113:External/bootloader/Src/bootloader_cmd.c ****       status |= bootloader_io_program(address, data);
 418              		.loc 1 113 5 is_stmt 1 view .LVU103
 113:External/bootloader/Src/bootloader_cmd.c ****       status |= bootloader_io_program(address, data);
 419              		.loc 1 113 8 is_stmt 0 view .LVU104
 420 0044 14F0FF04 		ands	r4, r4, #255
 421              	.LVL30:
 113:External/bootloader/Src/bootloader_cmd.c ****       status |= bootloader_io_program(address, data);
 422              		.loc 1 113 8 view .LVU105
 423 0048 E5D1     		bne	.L24
 114:External/bootloader/Src/bootloader_cmd.c **** 
 424              		.loc 1 114 7 is_stmt 1 view .LVU106
 114:External/bootloader/Src/bootloader_cmd.c **** 
 425              		.loc 1 114 17 is_stmt 0 view .LVU107
 426 004a BDF80210 		ldrh	r1, [sp, #2]
 427 004e 0198     		ldr	r0, [sp, #4]
 428 0050 FFF7FEFF 		bl	bootloader_io_program
 429              	.LVL31:
 114:External/bootloader/Src/bootloader_cmd.c **** 
 430              		.loc 1 114 14 discriminator 1 view .LVU108
 431 0054 0443     		orrs	r4, r4, r0
ARM GAS  /tmp/ccLZXbg2.s 			page 12


 432 0056 E4B2     		uxtb	r4, r4
 433              	.LVL32:
 114:External/bootloader/Src/bootloader_cmd.c **** 
 434              		.loc 1 114 14 discriminator 1 view .LVU109
 435 0058 DDE7     		b	.L24
 436              	.L23:
 120:External/bootloader/Src/bootloader_cmd.c ****   }
 121:External/bootloader/Src/bootloader_cmd.c **** 
 122:External/bootloader/Src/bootloader_cmd.c ****   if (num == 0)
 437              		.loc 1 122 3 is_stmt 1 view .LVU110
 438              		.loc 1 122 6 is_stmt 0 view .LVU111
 439 005a 15B1     		cbz	r5, .L29
 440              	.LVL33:
 441              	.L26:
 123:External/bootloader/Src/bootloader_cmd.c ****     return status || BOOTLOADER_ERROR;
 124:External/bootloader/Src/bootloader_cmd.c **** 
 125:External/bootloader/Src/bootloader_cmd.c ****   return status;
 126:External/bootloader/Src/bootloader_cmd.c **** }
 442              		.loc 1 126 1 view .LVU112
 443 005c 2046     		mov	r0, r4
 444 005e 03B0     		add	sp, sp, #12
 445              	.LCFI6:
 446              		.cfi_remember_state
 447              		.cfi_def_cfa_offset 12
 448              		@ sp needed
 449 0060 30BD     		pop	{r4, r5, pc}
 450              	.LVL34:
 451              	.L29:
 452              	.LCFI7:
 453              		.cfi_restore_state
 123:External/bootloader/Src/bootloader_cmd.c ****     return status || BOOTLOADER_ERROR;
 454              		.loc 1 123 19 view .LVU113
 455 0062 0124     		movs	r4, #1
 456              	.LVL35:
 123:External/bootloader/Src/bootloader_cmd.c ****     return status || BOOTLOADER_ERROR;
 457              		.loc 1 123 19 view .LVU114
 458 0064 FAE7     		b	.L26
 459              		.cfi_endproc
 460              	.LFE6:
 462              		.section	.text.cmd_erase,"ax",%progbits
 463              		.align	1
 464              		.syntax unified
 465              		.thumb
 466              		.thumb_func
 468              	cmd_erase:
 469              	.LFB7:
 127:External/bootloader/Src/bootloader_cmd.c **** 
 128:External/bootloader/Src/bootloader_cmd.c **** // cmd_0: address (4 bytes)
 129:External/bootloader/Src/bootloader_cmd.c **** // cmd_0: pages to erase (1 byte)
 130:External/bootloader/Src/bootloader_cmd.c **** static bootloader_status cmd_erase()
 131:External/bootloader/Src/bootloader_cmd.c **** {
 470              		.loc 1 131 1 is_stmt 1 view -0
 471              		.cfi_startproc
 472              		@ args = 0, pretend = 0, frame = 8
 473              		@ frame_needed = 0, uses_anonymous_args = 0
 474 0000 10B5     		push	{r4, lr}
 475              	.LCFI8:
ARM GAS  /tmp/ccLZXbg2.s 			page 13


 476              		.cfi_def_cfa_offset 8
 477              		.cfi_offset 4, -8
 478              		.cfi_offset 14, -4
 479 0002 82B0     		sub	sp, sp, #8
 480              	.LCFI9:
 481              		.cfi_def_cfa_offset 16
 132:External/bootloader/Src/bootloader_cmd.c ****   uint32_t address = 0;
 482              		.loc 1 132 3 view .LVU116
 483              		.loc 1 132 12 is_stmt 0 view .LVU117
 484 0004 0020     		movs	r0, #0
 485 0006 0190     		str	r0, [sp, #4]
 133:External/bootloader/Src/bootloader_cmd.c ****   uint8_t page_num = 0;
 486              		.loc 1 133 3 is_stmt 1 view .LVU118
 487              		.loc 1 133 11 is_stmt 0 view .LVU119
 488 0008 8DF80300 		strb	r0, [sp, #3]
 134:External/bootloader/Src/bootloader_cmd.c ****   bootloader_status status = BOOTLOADER_OK;
 489              		.loc 1 134 3 is_stmt 1 view .LVU120
 490              	.LVL36:
 135:External/bootloader/Src/bootloader_cmd.c **** 
 136:External/bootloader/Src/bootloader_cmd.c ****   send_response(status);
 491              		.loc 1 136 3 view .LVU121
 492 000c FFF7FEFF 		bl	send_response
 493              	.LVL37:
 137:External/bootloader/Src/bootloader_cmd.c ****   status = bootloader_io_read(
 494              		.loc 1 137 3 view .LVU122
 495              		.loc 1 137 12 is_stmt 0 view .LVU123
 496 0010 0421     		movs	r1, #4
 497 0012 0DEB0100 		add	r0, sp, r1
 498 0016 FFF7FEFF 		bl	bootloader_io_read
 499              	.LVL38:
 500 001a 0446     		mov	r4, r0
 501              	.LVL39:
 138:External/bootloader/Src/bootloader_cmd.c ****     (uint8_t*)&address,
 139:External/bootloader/Src/bootloader_cmd.c ****     sizeof(uint32_t)
 140:External/bootloader/Src/bootloader_cmd.c ****   );
 141:External/bootloader/Src/bootloader_cmd.c **** 
 142:External/bootloader/Src/bootloader_cmd.c ****   status |= bootloader_io_read(&page_num, sizeof(uint8_t));
 502              		.loc 1 142 3 is_stmt 1 view .LVU124
 503              		.loc 1 142 13 is_stmt 0 view .LVU125
 504 001c 0121     		movs	r1, #1
 505 001e 0DF10300 		add	r0, sp, #3
 506 0022 FFF7FEFF 		bl	bootloader_io_read
 507              	.LVL40:
 508              		.loc 1 142 10 discriminator 1 view .LVU126
 509 0026 0443     		orrs	r4, r4, r0
 510              	.LVL41:
 143:External/bootloader/Src/bootloader_cmd.c **** 
 144:External/bootloader/Src/bootloader_cmd.c ****   if (status == BOOTLOADER_OK)
 511              		.loc 1 144 3 is_stmt 1 view .LVU127
 512              		.loc 1 144 6 is_stmt 0 view .LVU128
 513 0028 14F0FF04 		ands	r4, r4, #255
 514              	.LVL42:
 515              		.loc 1 144 6 view .LVU129
 516 002c 05D0     		beq	.L33
 517              	.LVL43:
 518              	.L31:
 145:External/bootloader/Src/bootloader_cmd.c ****     status |= bootloader_io_erase(address, page_num);
ARM GAS  /tmp/ccLZXbg2.s 			page 14


 146:External/bootloader/Src/bootloader_cmd.c ****   send_response(status);
 519              		.loc 1 146 3 is_stmt 1 view .LVU130
 520 002e 2046     		mov	r0, r4
 521 0030 FFF7FEFF 		bl	send_response
 522              	.LVL44:
 147:External/bootloader/Src/bootloader_cmd.c **** 
 148:External/bootloader/Src/bootloader_cmd.c ****   return status;
 523              		.loc 1 148 3 view .LVU131
 149:External/bootloader/Src/bootloader_cmd.c **** }
 524              		.loc 1 149 1 is_stmt 0 view .LVU132
 525 0034 2046     		mov	r0, r4
 526 0036 02B0     		add	sp, sp, #8
 527              	.LCFI10:
 528              		.cfi_remember_state
 529              		.cfi_def_cfa_offset 8
 530              		@ sp needed
 531 0038 10BD     		pop	{r4, pc}
 532              	.LVL45:
 533              	.L33:
 534              	.LCFI11:
 535              		.cfi_restore_state
 145:External/bootloader/Src/bootloader_cmd.c ****     status |= bootloader_io_erase(address, page_num);
 536              		.loc 1 145 5 is_stmt 1 view .LVU133
 145:External/bootloader/Src/bootloader_cmd.c ****     status |= bootloader_io_erase(address, page_num);
 537              		.loc 1 145 15 is_stmt 0 view .LVU134
 538 003a 9DF80310 		ldrb	r1, [sp, #3]	@ zero_extendqisi2
 539 003e 0198     		ldr	r0, [sp, #4]
 540 0040 FFF7FEFF 		bl	bootloader_io_erase
 541              	.LVL46:
 145:External/bootloader/Src/bootloader_cmd.c ****     status |= bootloader_io_erase(address, page_num);
 542              		.loc 1 145 12 discriminator 1 view .LVU135
 543 0044 0443     		orrs	r4, r4, r0
 544 0046 E4B2     		uxtb	r4, r4
 545              	.LVL47:
 145:External/bootloader/Src/bootloader_cmd.c ****     status |= bootloader_io_erase(address, page_num);
 546              		.loc 1 145 12 discriminator 1 view .LVU136
 547 0048 F1E7     		b	.L31
 548              		.cfi_endproc
 549              	.LFE7:
 551              		.section	.rodata.bootloader_start_output.str1.4,"aMS",%progbits,1
 552              		.align	2
 553              	.LC3:
 554 0000 2D466C65 		.ascii	"-FlexyPixel Bootloader. Type '0' for commands list\000"
 554      78795069 
 554      78656C20 
 554      426F6F74 
 554      6C6F6164 
 555 0033 00       		.align	2
 556              	.LC4:
 557 0034 0D0A3E3E 		.ascii	"\015\012>>\000"
 557      00
 558              		.section	.text.bootloader_start_output,"ax",%progbits
 559              		.align	1
 560              		.global	bootloader_start_output
 561              		.syntax unified
 562              		.thumb
 563              		.thumb_func
ARM GAS  /tmp/ccLZXbg2.s 			page 15


 565              	bootloader_start_output:
 566              	.LFB8:
 150:External/bootloader/Src/bootloader_cmd.c **** 
 151:External/bootloader/Src/bootloader_cmd.c **** // Implementations -----------------------------------------------------------
 152:External/bootloader/Src/bootloader_cmd.c **** 
 153:External/bootloader/Src/bootloader_cmd.c **** bootloader_status bootloader_start_output()
 154:External/bootloader/Src/bootloader_cmd.c **** {
 567              		.loc 1 154 1 is_stmt 1 view -0
 568              		.cfi_startproc
 569              		@ args = 0, pretend = 0, frame = 0
 570              		@ frame_needed = 0, uses_anonymous_args = 0
 571 0000 10B5     		push	{r4, lr}
 572              	.LCFI12:
 573              		.cfi_def_cfa_offset 8
 574              		.cfi_offset 4, -8
 575              		.cfi_offset 14, -4
 155:External/bootloader/Src/bootloader_cmd.c ****   bootloader_status status = bootloader_io_write(
 576              		.loc 1 155 3 view .LVU138
 577              		.loc 1 155 30 is_stmt 0 view .LVU139
 578 0002 3321     		movs	r1, #51
 579 0004 0548     		ldr	r0, .L36
 580 0006 FFF7FEFF 		bl	bootloader_io_write
 581              	.LVL48:
 582 000a 0446     		mov	r4, r0
 583              	.LVL49:
 156:External/bootloader/Src/bootloader_cmd.c ****     (uint8_t*)start_message,
 157:External/bootloader/Src/bootloader_cmd.c ****     strlen(start_message) + 1
 158:External/bootloader/Src/bootloader_cmd.c ****   );
 159:External/bootloader/Src/bootloader_cmd.c ****   status |= bootloader_io_write(
 584              		.loc 1 159 3 is_stmt 1 view .LVU140
 585              		.loc 1 159 13 is_stmt 0 view .LVU141
 586 000c 0521     		movs	r1, #5
 587 000e 0448     		ldr	r0, .L36+4
 588 0010 FFF7FEFF 		bl	bootloader_io_write
 589              	.LVL50:
 590              		.loc 1 159 10 discriminator 1 view .LVU142
 591 0014 2043     		orrs	r0, r0, r4
 592              	.LVL51:
 160:External/bootloader/Src/bootloader_cmd.c ****     (uint8_t*)input_prompt,
 161:External/bootloader/Src/bootloader_cmd.c ****     strlen(input_prompt) + 1
 162:External/bootloader/Src/bootloader_cmd.c ****   );
 163:External/bootloader/Src/bootloader_cmd.c **** 
 164:External/bootloader/Src/bootloader_cmd.c ****   return status;
 593              		.loc 1 164 3 is_stmt 1 view .LVU143
 165:External/bootloader/Src/bootloader_cmd.c **** }
 594              		.loc 1 165 1 is_stmt 0 view .LVU144
 595 0016 C0B2     		uxtb	r0, r0
 596              		.loc 1 165 1 view .LVU145
 597 0018 10BD     		pop	{r4, pc}
 598              	.L37:
 599 001a 00BF     		.align	2
 600              	.L36:
 601 001c 00000000 		.word	.LC3
 602 0020 34000000 		.word	.LC4
 603              		.cfi_endproc
 604              	.LFE8:
 606              		.section	.text.bootloader_proccess_input,"ax",%progbits
ARM GAS  /tmp/ccLZXbg2.s 			page 16


 607              		.align	1
 608              		.global	bootloader_proccess_input
 609              		.syntax unified
 610              		.thumb
 611              		.thumb_func
 613              	bootloader_proccess_input:
 614              	.LFB9:
 166:External/bootloader/Src/bootloader_cmd.c **** 
 167:External/bootloader/Src/bootloader_cmd.c **** bootloader_status bootloader_proccess_input()
 168:External/bootloader/Src/bootloader_cmd.c **** {
 615              		.loc 1 168 1 is_stmt 1 view -0
 616              		.cfi_startproc
 617              		@ args = 0, pretend = 0, frame = 8
 618              		@ frame_needed = 0, uses_anonymous_args = 0
 619 0000 10B5     		push	{r4, lr}
 620              	.LCFI13:
 621              		.cfi_def_cfa_offset 8
 622              		.cfi_offset 4, -8
 623              		.cfi_offset 14, -4
 624 0002 82B0     		sub	sp, sp, #8
 625              	.LCFI14:
 626              		.cfi_def_cfa_offset 16
 169:External/bootloader/Src/bootloader_cmd.c ****   bootloader_status status = bootloader_io_read(uart_buffer, 1);
 627              		.loc 1 169 3 view .LVU147
 628              		.loc 1 169 30 is_stmt 0 view .LVU148
 629 0004 0121     		movs	r1, #1
 630 0006 1A48     		ldr	r0, .L49
 631 0008 FFF7FEFF 		bl	bootloader_io_read
 632              	.LVL52:
 633 000c 0446     		mov	r4, r0
 634              	.LVL53:
 170:External/bootloader/Src/bootloader_cmd.c **** 
 171:External/bootloader/Src/bootloader_cmd.c ****   if (status == BOOTLOADER_TIMEOUT)
 635              		.loc 1 171 3 is_stmt 1 view .LVU149
 636              		.loc 1 171 6 is_stmt 0 view .LVU150
 637 000e 0328     		cmp	r0, #3
 638 0010 1AD0     		beq	.L39
 172:External/bootloader/Src/bootloader_cmd.c ****     return status;
 173:External/bootloader/Src/bootloader_cmd.c **** 
 174:External/bootloader/Src/bootloader_cmd.c ****   uint8_t input_cmd = uart_buffer[0];
 639              		.loc 1 174 3 is_stmt 1 view .LVU151
 640              		.loc 1 174 34 is_stmt 0 view .LVU152
 641 0012 174B     		ldr	r3, .L49
 642 0014 1B78     		ldrb	r3, [r3]	@ zero_extendqisi2
 643              		.loc 1 174 11 view .LVU153
 644 0016 8DF80730 		strb	r3, [sp, #7]
 175:External/bootloader/Src/bootloader_cmd.c ****   switch(input_cmd)
 645              		.loc 1 175 3 is_stmt 1 view .LVU154
 646 001a 303B     		subs	r3, r3, #48
 647 001c 042B     		cmp	r3, #4
 648 001e 06D8     		bhi	.L40
 649 0020 DFE803F0 		tbb	[pc, r3]
 650              	.L42:
 651 0024 03       		.byte	(.L46-.L42)/2
 652 0025 15       		.byte	(.L45-.L42)/2
 653 0026 18       		.byte	(.L44-.L42)/2
 654 0027 1B       		.byte	(.L43-.L42)/2
ARM GAS  /tmp/ccLZXbg2.s 			page 17


 655 0028 20       		.byte	(.L41-.L42)/2
 656 0029 00       		.p2align 1
 657              	.L46:
 176:External/bootloader/Src/bootloader_cmd.c ****   {
 177:External/bootloader/Src/bootloader_cmd.c ****     case CMD_HELP:
 178:External/bootloader/Src/bootloader_cmd.c ****       cmd_help();
 658              		.loc 1 178 7 view .LVU155
 659 002a FFF7FEFF 		bl	cmd_help
 660              	.LVL54:
 179:External/bootloader/Src/bootloader_cmd.c ****       break;
 661              		.loc 1 179 7 view .LVU156
 662              	.L40:
 180:External/bootloader/Src/bootloader_cmd.c ****     case CMD_GET_ID:
 181:External/bootloader/Src/bootloader_cmd.c ****       cmd_get_id();
 182:External/bootloader/Src/bootloader_cmd.c ****       break;
 183:External/bootloader/Src/bootloader_cmd.c ****     case CMD_GET_BOOTLOADER_VER:
 184:External/bootloader/Src/bootloader_cmd.c ****       cmd_get_bootloader_version();
 185:External/bootloader/Src/bootloader_cmd.c ****       break;
 186:External/bootloader/Src/bootloader_cmd.c ****     case CMD_WRITE:
 187:External/bootloader/Src/bootloader_cmd.c ****       status |= cmd_write();
 188:External/bootloader/Src/bootloader_cmd.c ****       break;
 189:External/bootloader/Src/bootloader_cmd.c ****     case CMD_ERASE:
 190:External/bootloader/Src/bootloader_cmd.c ****       status |= cmd_erase();
 191:External/bootloader/Src/bootloader_cmd.c ****       break;
 192:External/bootloader/Src/bootloader_cmd.c ****   }
 193:External/bootloader/Src/bootloader_cmd.c **** 
 194:External/bootloader/Src/bootloader_cmd.c ****   status |= bootloader_io_write(&input_cmd, 1);
 663              		.loc 1 194 3 view .LVU157
 664              		.loc 1 194 13 is_stmt 0 view .LVU158
 665 002e 0121     		movs	r1, #1
 666 0030 0DF10700 		add	r0, sp, #7
 667 0034 FFF7FEFF 		bl	bootloader_io_write
 668              	.LVL55:
 669              		.loc 1 194 10 discriminator 1 view .LVU159
 670 0038 0443     		orrs	r4, r4, r0
 671              	.LVL56:
 672              		.loc 1 194 10 discriminator 1 view .LVU160
 673 003a E4B2     		uxtb	r4, r4
 674              	.LVL57:
 195:External/bootloader/Src/bootloader_cmd.c ****   status |= bootloader_io_write((uint8_t*)input_prompt, 4);
 675              		.loc 1 195 3 is_stmt 1 view .LVU161
 676              		.loc 1 195 13 is_stmt 0 view .LVU162
 677 003c 0421     		movs	r1, #4
 678 003e 0D48     		ldr	r0, .L49+4
 679 0040 FFF7FEFF 		bl	bootloader_io_write
 680              	.LVL58:
 681              		.loc 1 195 10 discriminator 1 view .LVU163
 682 0044 0443     		orrs	r4, r4, r0
 683              	.LVL59:
 684              		.loc 1 195 10 discriminator 1 view .LVU164
 685 0046 E4B2     		uxtb	r4, r4
 686              	.LVL60:
 196:External/bootloader/Src/bootloader_cmd.c ****   return status;
 687              		.loc 1 196 3 is_stmt 1 view .LVU165
 688              	.L39:
 197:External/bootloader/Src/bootloader_cmd.c **** }
 689              		.loc 1 197 1 is_stmt 0 view .LVU166
ARM GAS  /tmp/ccLZXbg2.s 			page 18


 690 0048 2046     		mov	r0, r4
 691 004a 02B0     		add	sp, sp, #8
 692              	.LCFI15:
 693              		.cfi_remember_state
 694              		.cfi_def_cfa_offset 8
 695              		@ sp needed
 696 004c 10BD     		pop	{r4, pc}
 697              	.LVL61:
 698              	.L45:
 699              	.LCFI16:
 700              		.cfi_restore_state
 181:External/bootloader/Src/bootloader_cmd.c ****       break;
 701              		.loc 1 181 7 is_stmt 1 view .LVU167
 702 004e FFF7FEFF 		bl	cmd_get_id
 703              	.LVL62:
 182:External/bootloader/Src/bootloader_cmd.c ****     case CMD_GET_BOOTLOADER_VER:
 704              		.loc 1 182 7 view .LVU168
 705 0052 ECE7     		b	.L40
 706              	.LVL63:
 707              	.L44:
 184:External/bootloader/Src/bootloader_cmd.c ****       break;
 708              		.loc 1 184 7 view .LVU169
 709 0054 FFF7FEFF 		bl	cmd_get_bootloader_version
 710              	.LVL64:
 185:External/bootloader/Src/bootloader_cmd.c ****     case CMD_WRITE:
 711              		.loc 1 185 7 view .LVU170
 712 0058 E9E7     		b	.L40
 713              	.LVL65:
 714              	.L43:
 187:External/bootloader/Src/bootloader_cmd.c ****       break;
 715              		.loc 1 187 7 view .LVU171
 187:External/bootloader/Src/bootloader_cmd.c ****       break;
 716              		.loc 1 187 17 is_stmt 0 view .LVU172
 717 005a FFF7FEFF 		bl	cmd_write
 718              	.LVL66:
 187:External/bootloader/Src/bootloader_cmd.c ****       break;
 719              		.loc 1 187 14 discriminator 1 view .LVU173
 720 005e 0443     		orrs	r4, r4, r0
 721 0060 E4B2     		uxtb	r4, r4
 722              	.LVL67:
 188:External/bootloader/Src/bootloader_cmd.c ****     case CMD_ERASE:
 723              		.loc 1 188 7 is_stmt 1 view .LVU174
 724 0062 E4E7     		b	.L40
 725              	.LVL68:
 726              	.L41:
 190:External/bootloader/Src/bootloader_cmd.c ****       break;
 727              		.loc 1 190 7 view .LVU175
 190:External/bootloader/Src/bootloader_cmd.c ****       break;
 728              		.loc 1 190 17 is_stmt 0 view .LVU176
 729 0064 FFF7FEFF 		bl	cmd_erase
 730              	.LVL69:
 190:External/bootloader/Src/bootloader_cmd.c ****       break;
 731              		.loc 1 190 14 discriminator 1 view .LVU177
 732 0068 0443     		orrs	r4, r4, r0
 733 006a E4B2     		uxtb	r4, r4
 734              	.LVL70:
 191:External/bootloader/Src/bootloader_cmd.c ****   }
ARM GAS  /tmp/ccLZXbg2.s 			page 19


 735              		.loc 1 191 7 is_stmt 1 view .LVU178
 736 006c DFE7     		b	.L40
 737              	.L50:
 738 006e 00BF     		.align	2
 739              	.L49:
 740 0070 00000000 		.word	uart_buffer
 741 0074 34000000 		.word	.LC4
 742              		.cfi_endproc
 743              	.LFE9:
 745              		.section	.bss.uart_buffer,"aw",%nobits
 746              		.align	2
 749              	uart_buffer:
 750 0000 00000000 		.space	100
 750      00000000 
 750      00000000 
 750      00000000 
 750      00000000 
 751              		.text
 752              	.Letext0:
 753              		.file 2 "External/bootloader/Inc/bootloader_defs.h"
 754              		.file 3 "/usr/local/src/arm-gnu-toolchain-13.2/arm-none-eabi/include/machine/_default_types.h"
 755              		.file 4 "/usr/local/src/arm-gnu-toolchain-13.2/arm-none-eabi/include/sys/_stdint.h"
 756              		.file 5 "/usr/local/src/arm-gnu-toolchain-13.2/lib/gcc/arm-none-eabi/13.2.1/include/stddef.h"
 757              		.file 6 "External/bootloader/Inc/bootloader_io.h"
 758              		.file 7 "/usr/local/src/arm-gnu-toolchain-13.2/arm-none-eabi/include/string.h"
 759              		.file 8 "<built-in>"
ARM GAS  /tmp/ccLZXbg2.s 			page 20


DEFINED SYMBOLS
                            *ABS*:00000000 bootloader_cmd.c
     /tmp/ccLZXbg2.s:19     .text.send_response:00000000 $t
     /tmp/ccLZXbg2.s:24     .text.send_response:00000000 send_response
     /tmp/ccLZXbg2.s:67     .text.send_response:0000001c $d
     /tmp/ccLZXbg2.s:749    .bss.uart_buffer:00000000 uart_buffer
     /tmp/ccLZXbg2.s:72     .rodata.cmd_help.str1.4:00000000 $d
     /tmp/ccLZXbg2.s:78     .text.cmd_help:00000000 $t
     /tmp/ccLZXbg2.s:83     .text.cmd_help:00000000 cmd_help
     /tmp/ccLZXbg2.s:116    .text.cmd_help:0000001c $d
     /tmp/ccLZXbg2.s:122    .rodata.cmd_get_bootloader_version.str1.4:00000000 $d
     /tmp/ccLZXbg2.s:126    .text.cmd_get_bootloader_version:00000000 $t
     /tmp/ccLZXbg2.s:131    .text.cmd_get_bootloader_version:00000000 cmd_get_bootloader_version
     /tmp/ccLZXbg2.s:183    .text.cmd_get_bootloader_version:00000040 $d
     /tmp/ccLZXbg2.s:189    .rodata.cmd_get_id.str1.4:00000000 $d
     /tmp/ccLZXbg2.s:193    .text.cmd_get_id:00000000 $t
     /tmp/ccLZXbg2.s:198    .text.cmd_get_id:00000000 cmd_get_id
     /tmp/ccLZXbg2.s:331    .text.cmd_get_id:0000007c $d
     /tmp/ccLZXbg2.s:338    .text.cmd_write:00000000 $t
     /tmp/ccLZXbg2.s:343    .text.cmd_write:00000000 cmd_write
     /tmp/ccLZXbg2.s:463    .text.cmd_erase:00000000 $t
     /tmp/ccLZXbg2.s:468    .text.cmd_erase:00000000 cmd_erase
     /tmp/ccLZXbg2.s:552    .rodata.bootloader_start_output.str1.4:00000000 $d
     /tmp/ccLZXbg2.s:559    .text.bootloader_start_output:00000000 $t
     /tmp/ccLZXbg2.s:565    .text.bootloader_start_output:00000000 bootloader_start_output
     /tmp/ccLZXbg2.s:601    .text.bootloader_start_output:0000001c $d
     /tmp/ccLZXbg2.s:607    .text.bootloader_proccess_input:00000000 $t
     /tmp/ccLZXbg2.s:613    .text.bootloader_proccess_input:00000000 bootloader_proccess_input
     /tmp/ccLZXbg2.s:651    .text.bootloader_proccess_input:00000024 $d
     /tmp/ccLZXbg2.s:740    .text.bootloader_proccess_input:00000070 $d
     /tmp/ccLZXbg2.s:746    .bss.uart_buffer:00000000 $d
     /tmp/ccLZXbg2.s:656    .text.bootloader_proccess_input:00000029 $d
     /tmp/ccLZXbg2.s:656    .text.bootloader_proccess_input:0000002a $t

UNDEFINED SYMBOLS
bootloader_io_write
memcpy
bootloader_io_get_dev_id
bootloader_io_read
bootloader_io_program
bootloader_io_erase
